target datalayout = "e-m:e-p270:32:32-p271:32:32-p272:64:64-i64:64-i128:128-f80:128-n8:16:32:64-S128"
target triple = "x86_64-pc-linux-gnu"

%struct._stat_tap_table_item_type = type { i32, %union.anon, %union.anon.2 }
%union.anon = type { ptr }
%union.anon.2 = type { ptr }
%struct._stat_tap_table_ui = type { i32, ptr, ptr, ptr, ptr, ptr, ptr, ptr, ptr, i64, ptr, i64, ptr, ptr, i32 }
%struct._value_string = type { i32, ptr }

@req_table_name = internal global ptr @.str.961, align 8
@resp_table_name = internal global ptr @.str.980, align 8
@.str.960 = private unnamed_addr constant [6 x i8] c"%u %s\00", align 1

; Function Attrs: null_pointer_is_valid sspstrong uwtable
define internal void @sip_stat_init(ptr noundef %0) #0 {
  %2 = alloca ptr, align 8
  %3 = alloca i32, align 4
  %4 = alloca ptr, align 8
  %5 = alloca ptr, align 8
  %6 = alloca [6 x %struct._stat_tap_table_item_type], align 16
  %7 = alloca i32, align 4
  %8 = alloca i32, align 4
  store ptr %0, ptr %2, align 8
  call void @llvm.lifetime.start.p0(i64 4, ptr %3) #18
  store i32 6, ptr %3, align 4
  call void @llvm.lifetime.start.p0(i64 8, ptr %4) #18
  call void @llvm.lifetime.start.p0(i64 8, ptr %5) #18
  call void @llvm.lifetime.start.p0(i64 144, ptr %6) #18
  call void @llvm.lifetime.start.p0(i64 4, ptr %7) #18
  %9 = getelementptr [6 x %struct._stat_tap_table_item_type], ptr %6, i64 0, i64 0
  %10 = getelementptr inbounds nuw %struct._stat_tap_table_item_type, ptr %9, i32 0, i32 0
  store i32 3, ptr %10, align 16
  %11 = getelementptr [6 x %struct._stat_tap_table_item_type], ptr %6, i64 0, i64 1
  %12 = getelementptr inbounds nuw %struct._stat_tap_table_item_type, ptr %11, i32 0, i32 0
  store i32 1, ptr %12, align 8
  %13 = getelementptr [6 x %struct._stat_tap_table_item_type], ptr %6, i64 0, i64 1
  %14 = getelementptr inbounds nuw %struct._stat_tap_table_item_type, ptr %13, i32 0, i32 2
  store i32 0, ptr %14, align 8
  %15 = getelementptr [6 x %struct._stat_tap_table_item_type], ptr %6, i64 0, i64 1
  %16 = getelementptr inbounds nuw %struct._stat_tap_table_item_type, ptr %15, i32 0, i32 1
  store i32 0, ptr %16, align 8
  %17 = getelementptr [6 x %struct._stat_tap_table_item_type], ptr %6, i64 0, i64 2
  %18 = getelementptr inbounds nuw %struct._stat_tap_table_item_type, ptr %17, i32 0, i32 0
  store i32 1, ptr %18, align 16
  %19 = getelementptr [6 x %struct._stat_tap_table_item_type], ptr %6, i64 0, i64 2
  %20 = getelementptr inbounds nuw %struct._stat_tap_table_item_type, ptr %19, i32 0, i32 1
  store i32 0, ptr %20, align 8
  %21 = getelementptr [6 x %struct._stat_tap_table_item_type], ptr %6, i64 0, i64 3
  %22 = getelementptr inbounds nuw %struct._stat_tap_table_item_type, ptr %21, i32 0, i32 0
  store i32 4, ptr %22, align 8
  %23 = getelementptr [6 x %struct._stat_tap_table_item_type], ptr %6, i64 0, i64 3
  %24 = getelementptr inbounds nuw %struct._stat_tap_table_item_type, ptr %23, i32 0, i32 2
  store i32 0, ptr %24, align 8
  %25 = getelementptr [6 x %struct._stat_tap_table_item_type], ptr %6, i64 0, i64 3
  %26 = getelementptr inbounds nuw %struct._stat_tap_table_item_type, ptr %25, i32 0, i32 1
  store double 0.000000e+00, ptr %26, align 8
  %27 = getelementptr [6 x %struct._stat_tap_table_item_type], ptr %6, i64 0, i64 4
  %28 = getelementptr inbounds nuw %struct._stat_tap_table_item_type, ptr %27, i32 0, i32 0
  store i32 4, ptr %28, align 16
  %29 = getelementptr [6 x %struct._stat_tap_table_item_type], ptr %6, i64 0, i64 4
  %30 = getelementptr inbounds nuw %struct._stat_tap_table_item_type, ptr %29, i32 0, i32 2
  store double 0.000000e+00, ptr %30, align 16
  %31 = getelementptr [6 x %struct._stat_tap_table_item_type], ptr %6, i64 0, i64 4
  %32 = getelementptr inbounds nuw %struct._stat_tap_table_item_type, ptr %31, i32 0, i32 1
  store double 0.000000e+00, ptr %32, align 8
  %33 = getelementptr [6 x %struct._stat_tap_table_item_type], ptr %6, i64 0, i64 5
  %34 = getelementptr inbounds nuw %struct._stat_tap_table_item_type, ptr %33, i32 0, i32 0
  store i32 4, ptr %34, align 8
  %35 = getelementptr [6 x %struct._stat_tap_table_item_type], ptr %6, i64 0, i64 5
  %36 = getelementptr inbounds nuw %struct._stat_tap_table_item_type, ptr %35, i32 0, i32 1
  store double 0.000000e+00, ptr %36, align 8
  %37 = load ptr, ptr %2, align 8
  %38 = load ptr, ptr @req_table_name, align 8
  %39 = call ptr @stat_tap_find_table(ptr noundef %37, ptr noundef %38)
  store ptr %39, ptr %4, align 8
  %40 = load ptr, ptr %4, align 8
  %41 = icmp ne ptr %40, null
  br i1 %41, label %42, label %53

42:                                               ; preds = %1
  %43 = load ptr, ptr %2, align 8
  %44 = getelementptr inbounds nuw %struct._stat_tap_table_ui, ptr %43, i32 0, i32 6
  %45 = load ptr, ptr %44, align 8
  %46 = icmp ne ptr %45, null
  br i1 %46, label %47, label %52

47:                                               ; preds = %42
  %48 = load ptr, ptr %2, align 8
  %49 = getelementptr inbounds nuw %struct._stat_tap_table_ui, ptr %48, i32 0, i32 6
  %50 = load ptr, ptr %49, align 8
  %51 = load ptr, ptr %4, align 8
  call void %50(ptr noundef %51)
  br label %52

52:                                               ; preds = %47, %42
  br label %80

53:                                               ; preds = %1
  %54 = load ptr, ptr @req_table_name, align 8
  %55 = load i32, ptr %3, align 4
  %56 = call ptr @stat_tap_init_table(ptr noundef %54, i32 noundef %55, i32 noundef 0, ptr noundef null)
  store ptr %56, ptr %4, align 8
  %57 = load ptr, ptr %2, align 8
  %58 = load ptr, ptr %4, align 8
  call void @stat_tap_add_table(ptr noundef %57, ptr noundef %58)
  store i32 1, ptr %7, align 4
  br label %59

59:                                               ; preds = %76, %53
  %60 = load i32, ptr %7, align 4
  %61 = zext i32 %60 to i64
  %62 = icmp ult i64 %61, 18
  br i1 %62, label %63, label %79

63:                                               ; preds = %59
  %64 = load i32, ptr %7, align 4
  %65 = zext i32 %64 to i64
  %66 = getelementptr [18 x ptr], ptr @sip_methods, i64 0, i64 %65
  %67 = load ptr, ptr %66, align 8
  %68 = call noalias ptr @g_strdup(ptr noundef %67)
  %69 = getelementptr [6 x %struct._stat_tap_table_item_type], ptr %6, i64 0, i64 0
  %70 = getelementptr inbounds nuw %struct._stat_tap_table_item_type, ptr %69, i32 0, i32 1
  store ptr %68, ptr %70, align 8
  %71 = load ptr, ptr %4, align 8
  %72 = load i32, ptr %7, align 4
  %73 = sub i32 %72, 1
  %74 = load i32, ptr %3, align 4
  %75 = getelementptr inbounds [6 x %struct._stat_tap_table_item_type], ptr %6, i64 0, i64 0
  call void @stat_tap_init_table_row(ptr noundef %71, i32 noundef %73, i32 noundef %74, ptr noundef %75)
  br label %76

76:                                               ; preds = %63
  %77 = load i32, ptr %7, align 4
  %78 = add i32 %77, 1
  store i32 %78, ptr %7, align 4
  br label %59, !llvm.loop !8

79:                                               ; preds = %59
  br label %80

80:                                               ; preds = %79, %52
  %81 = load ptr, ptr %2, align 8
  %82 = load ptr, ptr @resp_table_name, align 8
  %83 = call ptr @stat_tap_find_table(ptr noundef %81, ptr noundef %82)
  store ptr %83, ptr %5, align 8
  %84 = load ptr, ptr %5, align 8
  %85 = icmp ne ptr %84, null
  br i1 %85, label %86, label %97

86:                                               ; preds = %80
  %87 = load ptr, ptr %2, align 8
  %88 = getelementptr inbounds nuw %struct._stat_tap_table_ui, ptr %87, i32 0, i32 6
  %89 = load ptr, ptr %88, align 8
  %90 = icmp ne ptr %89, null
  br i1 %90, label %91, label %96

91:                                               ; preds = %86
  %92 = load ptr, ptr %2, align 8
  %93 = getelementptr inbounds nuw %struct._stat_tap_table_ui, ptr %92, i32 0, i32 6
  %94 = load ptr, ptr %93, align 8
  %95 = load ptr, ptr %5, align 8
  call void %94(ptr noundef %95)
  br label %96

96:                                               ; preds = %91, %86
  br label %137

97:                                               ; preds = %80
  %98 = load ptr, ptr @resp_table_name, align 8
  %99 = load i32, ptr %3, align 4
  %100 = call ptr @stat_tap_init_table(ptr noundef %98, i32 noundef %99, i32 noundef 0, ptr noundef null)
  store ptr %100, ptr %5, align 8
  %101 = load ptr, ptr %2, align 8
  %102 = load ptr, ptr %5, align 8
  call void @stat_tap_add_table(ptr noundef %101, ptr noundef %102)
  store i32 1, ptr %7, align 4
  br label %103

103:                                              ; preds = %133, %97
  %104 = load i32, ptr %7, align 4
  %105 = zext i32 %104 to i64
  %106 = getelementptr [76 x %struct._value_string], ptr @sip_response_code_vals, i64 0, i64 %105
  %107 = getelementptr inbounds nuw %struct._value_string, ptr %106, i32 0, i32 1
  %108 = load ptr, ptr %107, align 8
  %109 = icmp ne ptr %108, null
  br i1 %109, label %110, label %136

110:                                              ; preds = %103
  call void @llvm.lifetime.start.p0(i64 4, ptr %8) #18
  %111 = load i32, ptr %7, align 4
  %112 = zext i32 %111 to i64
  %113 = getelementptr [76 x %struct._value_string], ptr @sip_response_code_vals, i64 0, i64 %112
  %114 = getelementptr inbounds nuw %struct._value_string, ptr %113, i32 0, i32 0
  %115 = load i32, ptr %114, align 16
  store i32 %115, ptr %8, align 4
  %116 = load i32, ptr %8, align 4
  %117 = load i32, ptr %7, align 4
  %118 = zext i32 %117 to i64
  %119 = getelementptr [76 x %struct._value_string], ptr @sip_response_code_vals, i64 0, i64 %118
  %120 = getelementptr inbounds nuw %struct._value_string, ptr %119, i32 0, i32 1
  %121 = load ptr, ptr %120, align 8
  %122 = call noalias ptr (ptr, ptr, ...) @wmem_strdup_printf(ptr noundef null, ptr noundef @.str.960, i32 noundef %116, ptr noundef %121)
  %123 = getelementptr [6 x %struct._stat_tap_table_item_type], ptr %6, i64 0, i64 0
  %124 = getelementptr inbounds nuw %struct._stat_tap_table_item_type, ptr %123, i32 0, i32 1
  store ptr %122, ptr %124, align 8
  %125 = load i32, ptr %8, align 4
  %126 = getelementptr [6 x %struct._stat_tap_table_item_type], ptr %6, i64 0, i64 0
  %127 = getelementptr inbounds nuw %struct._stat_tap_table_item_type, ptr %126, i32 0, i32 2
  store i32 %125, ptr %127, align 16
  %128 = load ptr, ptr %5, align 8
  %129 = load i32, ptr %7, align 4
  %130 = sub i32 %129, 1
  %131 = load i32, ptr %3, align 4
  %132 = getelementptr inbounds [6 x %struct._stat_tap_table_item_type], ptr %6, i64 0, i64 0
  call void @stat_tap_init_table_row(ptr noundef %128, i32 noundef %130, i32 noundef %131, ptr noundef %132)
  call void @llvm.lifetime.end.p0(i64 4, ptr %8) #18
  br label %133

133:                                              ; preds = %110
  %134 = load i32, ptr %7, align 4
  %135 = add i32 %134, 1
  store i32 %135, ptr %7, align 4
  br label %103, !llvm.loop !9

136:                                              ; preds = %103
  br label %137

137:                                              ; preds = %136, %96
  call void @llvm.lifetime.end.p0(i64 4, ptr %7) #18
  call void @llvm.lifetime.end.p0(i64 144, ptr %6) #18
  call void @llvm.lifetime.end.p0(i64 8, ptr %5) #18
  call void @llvm.lifetime.end.p0(i64 8, ptr %4) #18
  call void @llvm.lifetime.end.p0(i64 4, ptr %3) #18
  ret void
}