; Function Attrs: null_pointer_is_valid sspstrong uwtable
define internal void @sip_stat_init(ptr noundef %0) #0 {
  %2 = alloca [6 x %struct._stat_tap_table_item_type], align 16
  call void @llvm.lifetime.start.p0(i64 144, ptr nonnull %2) #18
  store i32 3, ptr %2, align 16
  %3 = getelementptr inbounds nuw i8, ptr %2, i64 24
  store i32 1, ptr %3, align 8
  %4 = getelementptr inbounds nuw i8, ptr %2, i64 40
  store i32 0, ptr %4, align 8
  %5 = getelementptr inbounds nuw i8, ptr %2, i64 32
  store i32 0, ptr %5, align 16
  %6 = getelementptr inbounds nuw i8, ptr %2, i64 48
  store i32 1, ptr %6, align 16
  %7 = getelementptr inbounds nuw i8, ptr %2, i64 56
  store i32 0, ptr %7, align 8
  %8 = getelementptr inbounds nuw i8, ptr %2, i64 72
  store i32 4, ptr %8, align 8
  %9 = getelementptr inbounds nuw i8, ptr %2, i64 88
  store i32 0, ptr %9, align 8
  %10 = getelementptr inbounds nuw i8, ptr %2, i64 80
  store double 0.000000e+00, ptr %10, align 16
  %11 = getelementptr inbounds nuw i8, ptr %2, i64 96
  store i32 4, ptr %11, align 16
  %12 = getelementptr inbounds nuw i8, ptr %2, i64 104
  %13 = getelementptr inbounds nuw i8, ptr %2, i64 120
  call void @llvm.memset.p0.i64(ptr noundef nonnull align 8 dereferenceable(16) %12, i8 0, i64 16, i1 false)
  store i32 4, ptr %13, align 8
  %14 = getelementptr inbounds nuw i8, ptr %2, i64 128
  store double 0.000000e+00, ptr %14, align 16
  %15 = tail call ptr @stat_tap_find_table(ptr noundef %0, ptr noundef nonnull @.str.961)
  %.not = icmp eq ptr %15, null
  br i1 %.not, label %20, label %16

16:                                               ; preds = %1
  %17 = getelementptr inbounds nuw i8, ptr %0, i64 48
  %18 = load ptr, ptr %17, align 8
  %.not36 = icmp eq ptr %18, null
  br i1 %.not36, label %.loopexit40, label %19

19:                                               ; preds = %16
  tail call void %18(ptr noundef nonnull %15)
  br label %.loopexit40

20:                                               ; preds = %1
  %21 = tail call ptr @stat_tap_init_table(ptr noundef nonnull @.str.961, i32 noundef 6, i32 noundef 0, ptr noundef null)
  tail call void @stat_tap_add_table(ptr noundef %0, ptr noundef %21)
  %22 = getelementptr inbounds nuw i8, ptr %2, i64 8
  br label %23

23:                                               ; preds = %20, %23
  %indvars.iv = phi i64 [ 1, %20 ], [ %indvars.iv.next, %23 ]
  %24 = getelementptr [18 x ptr], ptr @sip_methods, i64 0, i64 %indvars.iv
  %25 = load ptr, ptr %24, align 8
  %26 = call noalias ptr @g_strdup(ptr noundef %25)
  store ptr %26, ptr %22, align 8
  %27 = trunc i64 %indvars.iv to i32
  %28 = add i32 %27, -1
  call void @stat_tap_init_table_row(ptr noundef %21, i32 noundef %28, i32 noundef 6, ptr noundef nonnull %2)
  %indvars.iv.next = add nuw nsw i64 %indvars.iv, 1
  %exitcond.not = icmp eq i64 %indvars.iv.next, 18
  br i1 %exitcond.not, label %.loopexit40, label %23, !llvm.loop !8

.loopexit40:                                      ; preds = %23, %16, %19
  %29 = call ptr @stat_tap_find_table(ptr noundef %0, ptr noundef nonnull @.str.980)
  %.not37 = icmp eq ptr %29, null
  br i1 %.not37, label %34, label %30

30:                                               ; preds = %.loopexit40
  %31 = getelementptr inbounds nuw i8, ptr %0, i64 48
  %32 = load ptr, ptr %31, align 8
  %.not39 = icmp eq ptr %32, null
  br i1 %.not39, label %.loopexit, label %33

33:                                               ; preds = %30
  call void %32(ptr noundef nonnull %29)
  br label %.loopexit

34:                                               ; preds = %.loopexit40
  %35 = call ptr @stat_tap_init_table(ptr noundef nonnull @.str.980, i32 noundef 6, i32 noundef 0, ptr noundef null)
  call void @stat_tap_add_table(ptr noundef %0, ptr noundef %35)
  %36 = getelementptr inbounds nuw i8, ptr %2, i64 8
  %37 = getelementptr inbounds nuw i8, ptr %2, i64 16
  br label %38

38:                                               ; preds = %34, %38
  %indvars.iv44 = phi i64 [ 1, %34 ], [ %indvars.iv.next45, %38 ]
  %39 = phi ptr [ @.str.2, %34 ], [ %47, %38 ]
  %40 = phi ptr [ getelementptr inbounds nuw (i8, ptr @sip_response_code_vals, i64 16), %34 ], [ %45, %38 ]
  %41 = load i32, ptr %40, align 16
  %42 = call noalias ptr (ptr, ptr, ...) @wmem_strdup_printf(ptr noundef null, ptr noundef nonnull @.str.960, i32 noundef %41, ptr noundef nonnull %39)
  store ptr %42, ptr %36, align 8
  store i32 %41, ptr %37, align 16
  %43 = trunc i64 %indvars.iv44 to i32
  %44 = add i32 %43, -1
  call void @stat_tap_init_table_row(ptr noundef %35, i32 noundef %44, i32 noundef 6, ptr noundef nonnull %2)
  %indvars.iv.next45 = add nuw nsw i64 %indvars.iv44, 1
  %45 = getelementptr [76 x %struct._value_string], ptr @sip_response_code_vals, i64 0, i64 %indvars.iv.next45
  %46 = getelementptr inbounds nuw i8, ptr %45, i64 8
  %47 = load ptr, ptr %46, align 8
  %exitcond47 = icmp eq i64 %indvars.iv.next45, 75
  br i1 %exitcond47, label %.loopexit, label %38, !llvm.loop !9

.loopexit:                                        ; preds = %38, %30, %33
  call void @llvm.lifetime.end.p0(i64 144, ptr nonnull %2) #18
  ret void
}